; Function Attrs: nounwind uwtable
define hidden void @zend_shared_alloc_register_xlat_entry(ptr noundef %0, ptr noundef %1) local_unnamed_addr #0 {
  %3 = alloca %struct._zval_struct, align 8
  %4 = ptrtoint ptr %0 to i64
  %5 = tail call i64 @llvm.fshl.i64(i64 %4, i64 %4, i64 61)
  store ptr %1, ptr %3, align 8
  %6 = getelementptr inbounds i8, ptr %3, i64 8
  store i32 13, ptr %6, align 8
  %7 = call ptr @zend_hash_index_add_new(ptr noundef nonnull getelementptr inbounds (%struct._zend_accel_globals, ptr @accel_globals, i64 0, i32 17), i64 noundef %5, ptr noundef nonnull %3) #20
  ret void
}